; Function Attrs: mustprogress nounwind uwtable
define hidden noundef zeroext i1 @_ZN19TemplateInterpreter25bytecode_should_reexecuteEN9Bytecodes4CodeE(i32 noundef %0) local_unnamed_addr #0 align 2 {
  %2 = icmp eq i32 %0, 177
  br i1 %2, label %5, label %3

3:                                                ; preds = %1
  %4 = tail call noundef zeroext i1 @_ZN19AbstractInterpreter25bytecode_should_reexecuteEN9Bytecodes4CodeE(i32 noundef %0) #15
  br label %5

5:                                                ; preds = %1, %3
  %.0 = phi i1 [ %4, %3 ], [ true, %1 ]
  ret i1 %.0
}